target datalayout = "e-m:e-p270:32:32-p271:32:32-p272:64:64-i64:64-i128:128-f80:128-n8:16:32:64-S128"
target triple = "x86_64-pc-linux-gnu"

%"class.Yosys::SExpr" = type { %"class.std::variant.337" }
%"class.std::variant.337" = type { %"struct.std::__detail::__variant::_Variant_base.base.355", [7 x i8] }
%"struct.std::__detail::__variant::_Variant_base.base.355" = type { %"struct.std::__detail::__variant::_Move_assign_base.base.354" }
%"struct.std::__detail::__variant::_Move_assign_base.base.354" = type { %"struct.std::__detail::__variant::_Copy_assign_base.base.353" }
%"struct.std::__detail::__variant::_Copy_assign_base.base.353" = type { %"struct.std::__detail::__variant::_Move_ctor_base.base.352" }
%"struct.std::__detail::__variant::_Move_ctor_base.base.352" = type { %"struct.std::__detail::__variant::_Copy_ctor_base.base.351" }
%"struct.std::__detail::__variant::_Copy_ctor_base.base.351" = type { %"struct.std::__detail::__variant::_Variant_storage.base.350" }
%"struct.std::__detail::__variant::_Variant_storage.base.350" = type { %"union.std::__detail::__variant::_Variadic_union.344", i8 }
%"union.std::__detail::__variant::_Variadic_union.344" = type { %"union.std::__detail::__variant::_Variadic_union.347" }
%"union.std::__detail::__variant::_Variadic_union.347" = type { %"struct.std::__detail::__variant::_Uninitialized.348" }
%"struct.std::__detail::__variant::_Uninitialized.348" = type { %"struct.__gnu_cxx::__aligned_membuf.349" }
%"struct.__gnu_cxx::__aligned_membuf.349" = type { [32 x i8] }
%"struct.(anonymous namespace)::SmtPrintVisitor" = type { %"struct.Yosys::Functional::AbstractVisitor", %"class.std::function", ptr, ptr }
%"struct.Yosys::Functional::AbstractVisitor" = type { ptr }
%"class.std::function" = type { %"class.std::_Function_base", ptr }
%"class.std::_Function_base" = type { %"union.std::_Any_data", ptr }
%"union.std::_Any_data" = type { %"union.std::_Nocopy_types" }
%"union.std::_Nocopy_types" = type { { i64, i64 } }
%"class.Yosys::Functional::Node" = type { %"struct.Yosys::ComputeGraph<Yosys::Functional::IR::NodeData, Yosys::Functional::IR::Attr, Yosys::RTLIL::IdString, std::tuple<Yosys::RTLIL::IdString, Yosys::RTLIL::IdString, bool>>::BaseRef" }
%"struct.Yosys::ComputeGraph<Yosys::Functional::IR::NodeData, Yosys::Functional::IR::Attr, Yosys::RTLIL::IdString, std::tuple<Yosys::RTLIL::IdString, Yosys::RTLIL::IdString, bool>>::BaseRef" = type <{ ptr, i32, [4 x i8] }>

@.str.102 = private unnamed_addr constant [2 x i8] c"=\00", align 1
@.str.103 = private unnamed_addr constant [4 x i8] c"ite\00", align 1
@.str.104 = private unnamed_addr constant [4 x i8] c"#b1\00", align 1
@.str.105 = private unnamed_addr constant [4 x i8] c"#b0\00", align 1

; Function Attrs: mustprogress nounwind uwtable
define linkonce_odr noundef zeroext i1 @_ZNKSt14_Function_base8_M_emptyEv(ptr noundef nonnull align 8 dereferenceable(24) %0) #6 comdat align 2 {
  %2 = alloca ptr, align 8
  store ptr %0, ptr %2, align 8, !tbaa !877
  %3 = load ptr, ptr %2, align 8
  %4 = getelementptr inbounds nuw %"class.std::_Function_base", ptr %3, i32 0, i32 1
  %5 = load ptr, ptr %4, align 8, !tbaa !879
  %6 = icmp ne ptr %5, null
  %7 = xor i1 %6, true
  ret i1 %7
}

; Function Attrs: mustprogress uwtable
define internal void @_ZN12_GLOBAL__N_115SmtPrintVisitor9from_boolEON5Yosys5SExprE(ptr dead_on_unwind noalias writable sret(%"class.Yosys::SExpr") align 8 %0, ptr noundef nonnull align 8 dereferenceable(56) %1, ptr noundef nonnull align 8 dereferenceable(40) %2) #4 align 2 {
  %4 = alloca ptr, align 8
  %5 = alloca ptr, align 8
  %6 = alloca ptr, align 8
  store ptr %0, ptr %4, align 8
  store ptr %1, ptr %5, align 8, !tbaa !712
  store ptr %2, ptr %6, align 8, !tbaa !707
  %7 = load ptr, ptr %6, align 8, !tbaa !707
  call void @_ZN5Yosys9SExprUtil4listIJRA4_KcNS_5SExprES4_S4_EEES5_DpOT_(ptr dead_on_unwind writable sret(%"class.Yosys::SExpr") align 8 %0, ptr noundef nonnull align 1 dereferenceable(4) @.str.103, ptr noundef nonnull align 8 dereferenceable(40) %7, ptr noundef nonnull align 1 dereferenceable(4) @.str.104, ptr noundef nonnull align 1 dereferenceable(4) @.str.105)
  ret void
}

; Function Attrs: mustprogress uwtable
define linkonce_odr void @_ZNKSt8functionIFN5Yosys5SExprENS0_10Functional4NodeEEEclES3_(ptr dead_on_unwind noalias writable sret(%"class.Yosys::SExpr") align 8 %0, ptr noundef nonnull align 8 dereferenceable(32) %1, ptr %2, i32 %3) #4 comdat align 2 {
  %5 = alloca ptr, align 8
  %6 = alloca %"class.Yosys::Functional::Node", align 8
  %7 = alloca ptr, align 8
  store ptr %0, ptr %5, align 8
  %8 = getelementptr inbounds nuw { ptr, i32 }, ptr %6, i32 0, i32 0
  store ptr %2, ptr %8, align 8
  %9 = getelementptr inbounds nuw { ptr, i32 }, ptr %6, i32 0, i32 1
  store i32 %3, ptr %9, align 8
  store ptr %1, ptr %7, align 8, !tbaa !848
  %10 = load ptr, ptr %7, align 8
  %11 = call noundef zeroext i1 @_ZNKSt14_Function_base8_M_emptyEv(ptr noundef nonnull align 8 dereferenceable(24) %10)
  br i1 %11, label %12, label %13

12:                                               ; preds = %4
  call void @_ZSt25__throw_bad_function_callv() #18
  unreachable

13:                                               ; preds = %4
  %14 = getelementptr inbounds nuw %"class.std::function", ptr %10, i32 0, i32 1
  %15 = load ptr, ptr %14, align 8, !tbaa !869
  %16 = getelementptr inbounds nuw %"class.std::_Function_base", ptr %10, i32 0, i32 0
  call void %15(ptr dead_on_unwind writable sret(%"class.Yosys::SExpr") align 8 %0, ptr noundef nonnull align 8 dereferenceable(16) %16, ptr noundef nonnull align 8 dereferenceable(16) %6)
  ret void
}

; Function Attrs: mustprogress uwtable
define internal void @_ZN12_GLOBAL__N_115SmtPrintVisitor5equalEN5Yosys10Functional4NodeES3_S3_(ptr dead_on_unwind noalias writable sret(%"class.Yosys::SExpr") align 8 %0, ptr noundef nonnull align 8 dereferenceable(56) %1, ptr %2, i32 %3, ptr %4, i32 %5, ptr noundef byval(%"class.Yosys::Functional::Node") align 8 %6) unnamed_addr #4 align 2 personality ptr @__gxx_personality_v0 {
  %8 = alloca ptr, align 8
  %9 = alloca %"class.Yosys::Functional::Node", align 8
  %10 = alloca %"class.Yosys::Functional::Node", align 8
  %11 = alloca ptr, align 8
  %12 = alloca %"class.Yosys::SExpr", align 8
  %13 = alloca %"class.Yosys::SExpr", align 8
  %14 = alloca %"class.Yosys::Functional::Node", align 8
  %15 = alloca %"class.Yosys::SExpr", align 8
  %16 = alloca %"class.Yosys::Functional::Node", align 8
  %17 = alloca ptr, align 8
  %18 = alloca i32, align 4
  store ptr %0, ptr %8, align 8
  %19 = getelementptr inbounds nuw { ptr, i32 }, ptr %9, i32 0, i32 0
  store ptr %2, ptr %19, align 8
  %20 = getelementptr inbounds nuw { ptr, i32 }, ptr %9, i32 0, i32 1
  store i32 %3, ptr %20, align 8
  %21 = getelementptr inbounds nuw { ptr, i32 }, ptr %10, i32 0, i32 0
  store ptr %4, ptr %21, align 8
  %22 = getelementptr inbounds nuw { ptr, i32 }, ptr %10, i32 0, i32 1
  store i32 %5, ptr %22, align 8
  store ptr %1, ptr %11, align 8, !tbaa !712
  %23 = load ptr, ptr %11, align 8
  call void @llvm.lifetime.start.p0(i64 40, ptr %12) #3
  call void @llvm.lifetime.start.p0(i64 40, ptr %13) #3
  %24 = getelementptr inbounds nuw %"struct.(anonymous namespace)::SmtPrintVisitor", ptr %23, i32 0, i32 1
  call void @llvm.memcpy.p0.p0.i64(ptr align 8 %14, ptr align 8 %10, i64 16, i1 false), !tbaa.struct !716
  %25 = getelementptr inbounds nuw { ptr, i32 }, ptr %14, i32 0, i32 0
  %26 = load ptr, ptr %25, align 8
  %27 = getelementptr inbounds nuw { ptr, i32 }, ptr %14, i32 0, i32 1
  %28 = load i32, ptr %27, align 8
  call void @_ZNKSt8functionIFN5Yosys5SExprENS0_10Functional4NodeEEEclES3_(ptr dead_on_unwind writable sret(%"class.Yosys::SExpr") align 8 %13, ptr noundef nonnull align 8 dereferenceable(32) %24, ptr %26, i32 %28)
  call void @llvm.lifetime.start.p0(i64 40, ptr %15) #3
  %29 = getelementptr inbounds nuw %"struct.(anonymous namespace)::SmtPrintVisitor", ptr %23, i32 0, i32 1
  call void @llvm.memcpy.p0.p0.i64(ptr align 8 %16, ptr align 8 %6, i64 16, i1 false), !tbaa.struct !716
  %30 = getelementptr inbounds nuw { ptr, i32 }, ptr %16, i32 0, i32 0
  %31 = load ptr, ptr %30, align 8
  %32 = getelementptr inbounds nuw { ptr, i32 }, ptr %16, i32 0, i32 1
  %33 = load i32, ptr %32, align 8
  invoke void @_ZNKSt8functionIFN5Yosys5SExprENS0_10Functional4NodeEEEclES3_(ptr dead_on_unwind writable sret(%"class.Yosys::SExpr") align 8 %15, ptr noundef nonnull align 8 dereferenceable(32) %29, ptr %31, i32 %33)
          to label %34 unwind label %37

34:                                               ; preds = %7
  invoke void @_ZN5Yosys9SExprUtil4listIJRA2_KcNS_5SExprES5_EEES5_DpOT_(ptr dead_on_unwind writable sret(%"class.Yosys::SExpr") align 8 %12, ptr noundef nonnull align 1 dereferenceable(2) @.str.102, ptr noundef nonnull align 8 dereferenceable(40) %13, ptr noundef nonnull align 8 dereferenceable(40) %15)
          to label %35 unwind label %41

35:                                               ; preds = %34
  invoke void @_ZN12_GLOBAL__N_115SmtPrintVisitor9from_boolEON5Yosys5SExprE(ptr dead_on_unwind writable sret(%"class.Yosys::SExpr") align 8 %0, ptr noundef nonnull align 8 dereferenceable(56) %23, ptr noundef nonnull align 8 dereferenceable(40) %12)
          to label %36 unwind label %45

36:                                               ; preds = %35
  call void @_ZN5Yosys5SExprD2Ev(ptr noundef nonnull align 8 dereferenceable(40) %12) #3
  call void @_ZN5Yosys5SExprD2Ev(ptr noundef nonnull align 8 dereferenceable(40) %15) #3
  call void @llvm.lifetime.end.p0(i64 40, ptr %15) #3
  call void @_ZN5Yosys5SExprD2Ev(ptr noundef nonnull align 8 dereferenceable(40) %13) #3
  call void @llvm.lifetime.end.p0(i64 40, ptr %13) #3
  call void @llvm.lifetime.end.p0(i64 40, ptr %12) #3
  ret void

37:                                               ; preds = %7
  %38 = landingpad { ptr, i32 }
          cleanup
  %39 = extractvalue { ptr, i32 } %38, 0
  store ptr %39, ptr %17, align 8
  %40 = extractvalue { ptr, i32 } %38, 1
  store i32 %40, ptr %18, align 4
  br label %50

41:                                               ; preds = %34
  %42 = landingpad { ptr, i32 }
          cleanup
  %43 = extractvalue { ptr, i32 } %42, 0
  store ptr %43, ptr %17, align 8
  %44 = extractvalue { ptr, i32 } %42, 1
  store i32 %44, ptr %18, align 4
  br label %49

45:                                               ; preds = %35
  %46 = landingpad { ptr, i32 }
          cleanup
  %47 = extractvalue { ptr, i32 } %46, 0
  store ptr %47, ptr %17, align 8
  %48 = extractvalue { ptr, i32 } %46, 1
  store i32 %48, ptr %18, align 4
  call void @_ZN5Yosys5SExprD2Ev(ptr noundef nonnull align 8 dereferenceable(40) %12) #3
  br label %49

49:                                               ; preds = %45, %41
  call void @_ZN5Yosys5SExprD2Ev(ptr noundef nonnull align 8 dereferenceable(40) %15) #3
  br label %50

50:                                               ; preds = %49, %37
  call void @llvm.lifetime.end.p0(i64 40, ptr %15) #3
  call void @_ZN5Yosys5SExprD2Ev(ptr noundef nonnull align 8 dereferenceable(40) %13) #3
  call void @llvm.lifetime.end.p0(i64 40, ptr %13) #3
  call void @llvm.lifetime.end.p0(i64 40, ptr %12) #3
  br label %51

51:                                               ; preds = %50
  %52 = load ptr, ptr %17, align 8
  %53 = load i32, ptr %18, align 4
  %54 = insertvalue { ptr, i32 } poison, ptr %52, 0
  %55 = insertvalue { ptr, i32 } %54, i32 %53, 1
  resume { ptr, i32 } %55
}